target datalayout = "e-m:e-p270:32:32-p271:32:32-p272:64:64-i64:64-i128:128-f80:128-n8:16:32:64-S128"
target triple = "x86_64-pc-linux-gnu"

%struct.archive_read = type { %struct.archive, ptr, i32, i64, i64, %struct.archive_read_client, [16 x %struct.archive_read_filter_bidder], ptr, i32, i64, i32, i32, [16 x %struct.archive_format_descriptor], ptr, ptr, ptr, %struct.anon }
%struct.archive = type { i32, i32, ptr, i32, ptr, i32, i32, ptr, %struct.archive_string, ptr, i32, i32, ptr, ptr, i64, i64, i64, i8, i64 }
%struct.archive_string = type { ptr, i64, i64 }
%struct.archive_read_client = type { ptr, ptr, ptr, ptr, ptr, ptr, i32, i32, i64, ptr }
%struct.archive_read_filter_bidder = type { ptr, ptr, ptr }
%struct.archive_format_descriptor = type { ptr, ptr, ptr, ptr, ptr, ptr, ptr, ptr, ptr, ptr, ptr }
%struct.anon = type { ptr, ptr, i32, ptr, ptr }
%struct.tar = type { %struct.archive_string, %struct.archive_string, %struct.archive_string, %struct.archive_string, %struct.archive_string, %struct.archive_string, i32, i64, i64, i64, i64, i64, ptr, ptr, i64, i64, i32, i32, i8, i8, %struct.archive_string, ptr, ptr, ptr, ptr, i32, i32, i32, i32, i32 }

@.str.128 = private unnamed_addr constant [14 x i8] c"Line too long\00", align 1
@.str.129 = private unnamed_addr constant [30 x i8] c"Can't allocate working buffer\00", align 1

; Function Attrs: nounwind uwtable
define internal void @tar_flush_unconsumed(ptr noundef %0, ptr noundef %1) #0 {
  %3 = alloca ptr, align 8
  %4 = alloca ptr, align 8
  store ptr %0, ptr %3, align 8, !tbaa !11
  store ptr %1, ptr %4, align 8, !tbaa !66
  %5 = load ptr, ptr %4, align 8, !tbaa !66
  %6 = load i64, ptr %5, align 8, !tbaa !46
  %7 = icmp ne i64 %6, 0
  br i1 %7, label %8, label %14

8:                                                ; preds = %2
  %9 = load ptr, ptr %3, align 8, !tbaa !11
  %10 = load ptr, ptr %4, align 8, !tbaa !66
  %11 = load i64, ptr %10, align 8, !tbaa !46
  %12 = call i64 @__archive_read_consume(ptr noundef %9, i64 noundef %11)
  %13 = load ptr, ptr %4, align 8, !tbaa !66
  store i64 0, ptr %13, align 8, !tbaa !46
  br label %14

14:                                               ; preds = %8, %2
  ret void
}

; Function Attrs: nounwind uwtable
define internal i64 @readline(ptr noundef %0, ptr noundef %1, ptr noundef %2, i64 noundef %3, ptr noundef %4) #0 {
  %6 = alloca i64, align 8
  %7 = alloca ptr, align 8
  %8 = alloca ptr, align 8
  %9 = alloca ptr, align 8
  %10 = alloca i64, align 8
  %11 = alloca ptr, align 8
  %12 = alloca i64, align 8
  %13 = alloca i64, align 8
  %14 = alloca ptr, align 8
  %15 = alloca ptr, align 8
  %16 = alloca ptr, align 8
  %17 = alloca i32, align 4
  store ptr %0, ptr %7, align 8, !tbaa !11
  store ptr %1, ptr %8, align 8, !tbaa !13
  store ptr %2, ptr %9, align 8, !tbaa !138
  store i64 %3, ptr %10, align 8, !tbaa !46
  store ptr %4, ptr %11, align 8, !tbaa !66
  call void @llvm.lifetime.start.p0(i64 8, ptr %12) #10
  call void @llvm.lifetime.start.p0(i64 8, ptr %13) #10
  store i64 0, ptr %13, align 8, !tbaa !46
  call void @llvm.lifetime.start.p0(i64 8, ptr %14) #10
  call void @llvm.lifetime.start.p0(i64 8, ptr %15) #10
  call void @llvm.lifetime.start.p0(i64 8, ptr %16) #10
  %18 = load ptr, ptr %7, align 8, !tbaa !11
  %19 = load ptr, ptr %11, align 8, !tbaa !66
  call void @tar_flush_unconsumed(ptr noundef %18, ptr noundef %19)
  %20 = load ptr, ptr %7, align 8, !tbaa !11
  %21 = call ptr @__archive_read_ahead(ptr noundef %20, i64 noundef 1, ptr noundef %12)
  store ptr %21, ptr %14, align 8, !tbaa !65
  %22 = load i64, ptr %12, align 8, !tbaa !46
  %23 = icmp sle i64 %22, 0
  br i1 %23, label %27, label %24

24:                                               ; preds = %5
  %25 = load ptr, ptr %14, align 8, !tbaa !65
  %26 = icmp eq ptr %25, null
  br i1 %26, label %27, label %28

27:                                               ; preds = %24, %5
  store i64 -30, ptr %6, align 8
  store i32 1, ptr %17, align 4
  br label %126

28:                                               ; preds = %24
  %29 = load ptr, ptr %14, align 8, !tbaa !65
  store ptr %29, ptr %15, align 8, !tbaa !15
  %30 = load ptr, ptr %14, align 8, !tbaa !65
  %31 = load i64, ptr %12, align 8, !tbaa !46
  %32 = call ptr @memchr(ptr noundef %30, i32 noundef 10, i64 noundef %31) #12
  store ptr %32, ptr %16, align 8, !tbaa !65
  %33 = load ptr, ptr %16, align 8, !tbaa !65
  %34 = icmp ne ptr %33, null
  br i1 %34, label %35, label %54

35:                                               ; preds = %28
  %36 = load ptr, ptr %16, align 8, !tbaa !65
  %37 = getelementptr inbounds i8, ptr %36, i64 1
  %38 = load ptr, ptr %15, align 8, !tbaa !15
  %39 = ptrtoint ptr %37 to i64
  %40 = ptrtoint ptr %38 to i64
  %41 = sub i64 %39, %40
  store i64 %41, ptr %12, align 8, !tbaa !46
  %42 = load i64, ptr %12, align 8, !tbaa !46
  %43 = load i64, ptr %10, align 8, !tbaa !46
  %44 = icmp sgt i64 %42, %43
  br i1 %44, label %45, label %48

45:                                               ; preds = %35
  %46 = load ptr, ptr %7, align 8, !tbaa !11
  %47 = getelementptr inbounds nuw %struct.archive_read, ptr %46, i32 0, i32 0
  call void (ptr, i32, ptr, ...) @archive_set_error(ptr noundef %47, i32 noundef 84, ptr noundef @.str.128)
  store i64 -30, ptr %6, align 8
  store i32 1, ptr %17, align 4
  br label %126

48:                                               ; preds = %35
  %49 = load i64, ptr %12, align 8, !tbaa !46
  %50 = load ptr, ptr %11, align 8, !tbaa !66
  store i64 %49, ptr %50, align 8, !tbaa !46
  %51 = load ptr, ptr %15, align 8, !tbaa !15
  %52 = load ptr, ptr %9, align 8, !tbaa !138
  store ptr %51, ptr %52, align 8, !tbaa !15
  %53 = load i64, ptr %12, align 8, !tbaa !46
  store i64 %53, ptr %6, align 8
  store i32 1, ptr %17, align 4
  br label %126

54:                                               ; preds = %28
  %55 = load i64, ptr %12, align 8, !tbaa !46
  %56 = load ptr, ptr %11, align 8, !tbaa !66
  store i64 %55, ptr %56, align 8, !tbaa !46
  br label %57

57:                                               ; preds = %123, %54
  %58 = load i64, ptr %13, align 8, !tbaa !46
  %59 = load i64, ptr %12, align 8, !tbaa !46
  %60 = add nsw i64 %58, %59
  %61 = load i64, ptr %10, align 8, !tbaa !46
  %62 = icmp sgt i64 %60, %61
  br i1 %62, label %63, label %66

63:                                               ; preds = %57
  %64 = load ptr, ptr %7, align 8, !tbaa !11
  %65 = getelementptr inbounds nuw %struct.archive_read, ptr %64, i32 0, i32 0
  call void (ptr, i32, ptr, ...) @archive_set_error(ptr noundef %65, i32 noundef 84, ptr noundef @.str.128)
  store i64 -30, ptr %6, align 8
  store i32 1, ptr %17, align 4
  br label %126

66:                                               ; preds = %57
  %67 = load ptr, ptr %8, align 8, !tbaa !13
  %68 = getelementptr inbounds nuw %struct.tar, ptr %67, i32 0, i32 5
  %69 = load i64, ptr %13, align 8, !tbaa !46
  %70 = load i64, ptr %12, align 8, !tbaa !46
  %71 = add nsw i64 %69, %70
  %72 = call ptr @archive_string_ensure(ptr noundef %68, i64 noundef %71)
  %73 = icmp eq ptr %72, null
  br i1 %73, label %74, label %77

74:                                               ; preds = %66
  %75 = load ptr, ptr %7, align 8, !tbaa !11
  %76 = getelementptr inbounds nuw %struct.archive_read, ptr %75, i32 0, i32 0
  call void (ptr, i32, ptr, ...) @archive_set_error(ptr noundef %76, i32 noundef 12, ptr noundef @.str.129)
  store i64 -30, ptr %6, align 8
  store i32 1, ptr %17, align 4
  br label %126

77:                                               ; preds = %66
  %78 = load ptr, ptr %8, align 8, !tbaa !13
  %79 = getelementptr inbounds nuw %struct.tar, ptr %78, i32 0, i32 5
  %80 = getelementptr inbounds nuw %struct.archive_string, ptr %79, i32 0, i32 0
  %81 = load ptr, ptr %80, align 8, !tbaa !140
  %82 = load i64, ptr %13, align 8, !tbaa !46
  %83 = getelementptr inbounds i8, ptr %81, i64 %82
  %84 = load ptr, ptr %14, align 8, !tbaa !65
  %85 = load i64, ptr %12, align 8, !tbaa !46
  call void @llvm.memcpy.p0.p0.i64(ptr align 1 %83, ptr align 1 %84, i64 %85, i1 false)
  %86 = load ptr, ptr %7, align 8, !tbaa !11
  %87 = load ptr, ptr %11, align 8, !tbaa !66
  call void @tar_flush_unconsumed(ptr noundef %86, ptr noundef %87)
  %88 = load i64, ptr %12, align 8, !tbaa !46
  %89 = load i64, ptr %13, align 8, !tbaa !46
  %90 = add nsw i64 %89, %88
  store i64 %90, ptr %13, align 8, !tbaa !46
  %91 = load ptr, ptr %16, align 8, !tbaa !65
  %92 = icmp ne ptr %91, null
  br i1 %92, label %93, label %100

93:                                               ; preds = %77
  %94 = load ptr, ptr %8, align 8, !tbaa !13
  %95 = getelementptr inbounds nuw %struct.tar, ptr %94, i32 0, i32 5
  %96 = getelementptr inbounds nuw %struct.archive_string, ptr %95, i32 0, i32 0
  %97 = load ptr, ptr %96, align 8, !tbaa !140
  %98 = load ptr, ptr %9, align 8, !tbaa !138
  store ptr %97, ptr %98, align 8, !tbaa !15
  %99 = load i64, ptr %13, align 8, !tbaa !46
  store i64 %99, ptr %6, align 8
  store i32 1, ptr %17, align 4
  br label %126

100:                                              ; preds = %77
  %101 = load ptr, ptr %7, align 8, !tbaa !11
  %102 = call ptr @__archive_read_ahead(ptr noundef %101, i64 noundef 1, ptr noundef %12)
  store ptr %102, ptr %14, align 8, !tbaa !65
  %103 = load i64, ptr %12, align 8, !tbaa !46
  %104 = icmp sle i64 %103, 0
  br i1 %104, label %108, label %105

105:                                              ; preds = %100
  %106 = load ptr, ptr %14, align 8, !tbaa !65
  %107 = icmp eq ptr %106, null
  br i1 %107, label %108, label %109

108:                                              ; preds = %105, %100
  store i64 -30, ptr %6, align 8
  store i32 1, ptr %17, align 4
  br label %126

109:                                              ; preds = %105
  %110 = load ptr, ptr %14, align 8, !tbaa !65
  store ptr %110, ptr %15, align 8, !tbaa !15
  %111 = load ptr, ptr %14, align 8, !tbaa !65
  %112 = load i64, ptr %12, align 8, !tbaa !46
  %113 = call ptr @memchr(ptr noundef %111, i32 noundef 10, i64 noundef %112) #12
  store ptr %113, ptr %16, align 8, !tbaa !65
  %114 = load ptr, ptr %16, align 8, !tbaa !65
  %115 = icmp ne ptr %114, null
  br i1 %115, label %116, label %123

116:                                              ; preds = %109
  %117 = load ptr, ptr %16, align 8, !tbaa !65
  %118 = getelementptr inbounds i8, ptr %117, i64 1
  %119 = load ptr, ptr %15, align 8, !tbaa !15
  %120 = ptrtoint ptr %118 to i64
  %121 = ptrtoint ptr %119 to i64
  %122 = sub i64 %120, %121
  store i64 %122, ptr %12, align 8, !tbaa !46
  br label %123

123:                                              ; preds = %116, %109
  %124 = load i64, ptr %12, align 8, !tbaa !46
  %125 = load ptr, ptr %11, align 8, !tbaa !66
  store i64 %124, ptr %125, align 8, !tbaa !46
  br label %57

126:                                              ; preds = %108, %93, %74, %63, %48, %45, %27
  call void @llvm.lifetime.end.p0(i64 8, ptr %16) #10
  call void @llvm.lifetime.end.p0(i64 8, ptr %15) #10
  call void @llvm.lifetime.end.p0(i64 8, ptr %14) #10
  call void @llvm.lifetime.end.p0(i64 8, ptr %13) #10
  call void @llvm.lifetime.end.p0(i64 8, ptr %12) #10
  %127 = load i64, ptr %6, align 8
  ret i64 %127
}

; Function Attrs: nounwind uwtable
define internal i64 @gnu_sparse_10_atol(ptr noundef %0, ptr noundef %1, ptr noundef %2, ptr noundef %3) #0 {
  %5 = alloca i64, align 8
  %6 = alloca ptr, align 8
  %7 = alloca ptr, align 8
  %8 = alloca ptr, align 8
  %9 = alloca ptr, align 8
  %10 = alloca i64, align 8
  %11 = alloca i64, align 8
  %12 = alloca i64, align 8
  %13 = alloca ptr, align 8
  %14 = alloca i64, align 8
  %15 = alloca i32, align 4
  %16 = alloca i32, align 4
  %17 = alloca i32, align 4
  store ptr %0, ptr %6, align 8, !tbaa !11
  store ptr %1, ptr %7, align 8, !tbaa !13
  store ptr %2, ptr %8, align 8, !tbaa !66
  store ptr %3, ptr %9, align 8, !tbaa !66
  call void @llvm.lifetime.start.p0(i64 8, ptr %10) #10
  call void @llvm.lifetime.start.p0(i64 8, ptr %11) #10
  call void @llvm.lifetime.start.p0(i64 8, ptr %12) #10
  call void @llvm.lifetime.start.p0(i64 8, ptr %13) #10
  call void @llvm.lifetime.start.p0(i64 8, ptr %14) #10
  call void @llvm.lifetime.start.p0(i64 4, ptr %15) #10
  call void @llvm.lifetime.start.p0(i64 4, ptr %16) #10
  store i32 10, ptr %15, align 4, !tbaa !9
  %18 = load i32, ptr %15, align 4, !tbaa !9
  %19 = sext i32 %18 to i64
  %20 = sdiv i64 9223372036854775807, %19
  store i64 %20, ptr %11, align 8, !tbaa !46
  %21 = load i32, ptr %15, align 4, !tbaa !9
  %22 = sext i32 %21 to i64
  %23 = srem i64 9223372036854775807, %22
  store i64 %23, ptr %12, align 8, !tbaa !46
  br label %24

24:                                               ; preds = %46, %4
  %25 = load ptr, ptr %6, align 8, !tbaa !11
  %26 = load ptr, ptr %7, align 8, !tbaa !13
  %27 = load ptr, ptr %8, align 8, !tbaa !66
  %28 = load i64, ptr %27, align 8, !tbaa !46
  %29 = icmp slt i64 %28, 100
  br i1 %29, label %30, label %33

30:                                               ; preds = %24
  %31 = load ptr, ptr %8, align 8, !tbaa !66
  %32 = load i64, ptr %31, align 8, !tbaa !46
  br label %34

33:                                               ; preds = %24
  br label %34

34:                                               ; preds = %33, %30
  %35 = phi i64 [ %32, %30 ], [ 100, %33 ]
  %36 = load ptr, ptr %9, align 8, !tbaa !66
  %37 = call i64 @readline(ptr noundef %25, ptr noundef %26, ptr noundef %13, i64 noundef %35, ptr noundef %36)
  store i64 %37, ptr %14, align 8, !tbaa !46
  %38 = load i64, ptr %14, align 8, !tbaa !46
  %39 = icmp sle i64 %38, 0
  br i1 %39, label %40, label %41

40:                                               ; preds = %34
  store i64 -30, ptr %5, align 8
  store i32 1, ptr %17, align 4
  br label %108

41:                                               ; preds = %34
  %42 = load i64, ptr %14, align 8, !tbaa !46
  %43 = load ptr, ptr %8, align 8, !tbaa !66
  %44 = load i64, ptr %43, align 8, !tbaa !46
  %45 = sub nsw i64 %44, %42
  store i64 %45, ptr %43, align 8, !tbaa !46
  br label %46

46:                                               ; preds = %41
  %47 = load ptr, ptr %13, align 8, !tbaa !15
  %48 = getelementptr inbounds i8, ptr %47, i64 0
  %49 = load i8, ptr %48, align 1, !tbaa !17
  %50 = sext i8 %49 to i32
  %51 = icmp eq i32 %50, 35
  br i1 %51, label %24, label %52, !llvm.loop !136

52:                                               ; preds = %46
  store i64 0, ptr %10, align 8, !tbaa !46
  br label %53

53:                                               ; preds = %102, %52
  %54 = load i64, ptr %14, align 8, !tbaa !46
  %55 = icmp sgt i64 %54, 0
  br i1 %55, label %56, label %107

56:                                               ; preds = %53
  %57 = load ptr, ptr %13, align 8, !tbaa !15
  %58 = load i8, ptr %57, align 1, !tbaa !17
  %59 = sext i8 %58 to i32
  %60 = icmp eq i32 %59, 10
  br i1 %60, label %61, label %63

61:                                               ; preds = %56
  %62 = load i64, ptr %10, align 8, !tbaa !46
  store i64 %62, ptr %5, align 8
  store i32 1, ptr %17, align 4
  br label %108

63:                                               ; preds = %56
  %64 = load ptr, ptr %13, align 8, !tbaa !15
  %65 = load i8, ptr %64, align 1, !tbaa !17
  %66 = sext i8 %65 to i32
  %67 = icmp slt i32 %66, 48
  br i1 %67, label %75, label %68

68:                                               ; preds = %63
  %69 = load ptr, ptr %13, align 8, !tbaa !15
  %70 = load i8, ptr %69, align 1, !tbaa !17
  %71 = sext i8 %70 to i32
  %72 = load i32, ptr %15, align 4, !tbaa !9
  %73 = add nsw i32 48, %72
  %74 = icmp sge i32 %71, %73
  br i1 %74, label %75, label %76

75:                                               ; preds = %68, %63
  store i64 -20, ptr %5, align 8
  store i32 1, ptr %17, align 4
  br label %108

76:                                               ; preds = %68
  %77 = load ptr, ptr %13, align 8, !tbaa !15
  %78 = load i8, ptr %77, align 1, !tbaa !17
  %79 = sext i8 %78 to i32
  %80 = sub nsw i32 %79, 48
  store i32 %80, ptr %16, align 4, !tbaa !9
  %81 = load i64, ptr %10, align 8, !tbaa !46
  %82 = load i64, ptr %11, align 8, !tbaa !46
  %83 = icmp sgt i64 %81, %82
  br i1 %83, label %93, label %84

84:                                               ; preds = %76
  %85 = load i64, ptr %10, align 8, !tbaa !46
  %86 = load i64, ptr %11, align 8, !tbaa !46
  %87 = icmp eq i64 %85, %86
  br i1 %87, label %88, label %94

88:                                               ; preds = %84
  %89 = load i32, ptr %16, align 4, !tbaa !9
  %90 = sext i32 %89 to i64
  %91 = load i64, ptr %12, align 8, !tbaa !46
  %92 = icmp sgt i64 %90, %91
  br i1 %92, label %93, label %94

93:                                               ; preds = %88, %76
  store i64 9223372036854775807, ptr %10, align 8, !tbaa !46
  br label %102

94:                                               ; preds = %88, %84
  %95 = load i64, ptr %10, align 8, !tbaa !46
  %96 = load i32, ptr %15, align 4, !tbaa !9
  %97 = sext i32 %96 to i64
  %98 = mul nsw i64 %95, %97
  %99 = load i32, ptr %16, align 4, !tbaa !9
  %100 = sext i32 %99 to i64
  %101 = add nsw i64 %98, %100
  store i64 %101, ptr %10, align 8, !tbaa !46
  br label %102

102:                                              ; preds = %94, %93
  %103 = load ptr, ptr %13, align 8, !tbaa !15
  %104 = getelementptr inbounds nuw i8, ptr %103, i32 1
  store ptr %104, ptr %13, align 8, !tbaa !15
  %105 = load i64, ptr %14, align 8, !tbaa !46
  %106 = add nsw i64 %105, -1
  store i64 %106, ptr %14, align 8, !tbaa !46
  br label %53, !llvm.loop !137

107:                                              ; preds = %53
  store i64 -20, ptr %5, align 8
  store i32 1, ptr %17, align 4
  br label %108

108:                                              ; preds = %107, %75, %61, %40
  call void @llvm.lifetime.end.p0(i64 4, ptr %16) #10
  call void @llvm.lifetime.end.p0(i64 4, ptr %15) #10
  call void @llvm.lifetime.end.p0(i64 8, ptr %14) #10
  call void @llvm.lifetime.end.p0(i64 8, ptr %13) #10
  call void @llvm.lifetime.end.p0(i64 8, ptr %12) #10
  call void @llvm.lifetime.end.p0(i64 8, ptr %11) #10
  call void @llvm.lifetime.end.p0(i64 8, ptr %10) #10
  %109 = load i64, ptr %5, align 8
  ret i64 %109
}