; Function Attrs: nounwind uwtable
define internal fastcc i64 @gnu_sparse_10_atol(ptr noundef %0, ptr noundef %1, ptr noundef nonnull captures(none) %2, ptr noundef nonnull captures(none) %3) unnamed_addr #0 {
  %5 = alloca i64, align 8
  %6 = getelementptr inbounds nuw i8, ptr %1, i64 120
  %.pre = load i64, ptr %2, align 8, !tbaa !45
  br label %7

7:                                                ; preds = %59, %4
  %8 = phi i64 [ %61, %59 ], [ %.pre, %4 ]
  %spec.select = call i64 @llvm.smin.i64(i64 %8, i64 100)
  call void @llvm.lifetime.start.p0(i64 8, ptr nonnull %5) #13
  %9 = load i64, ptr %3, align 8, !tbaa !45
  %.not.i.i = icmp eq i64 %9, 0
  br i1 %.not.i.i, label %tar_flush_unconsumed.exit.i, label %10

10:                                               ; preds = %7
  %11 = call i64 @__archive_read_consume(ptr noundef %0, i64 noundef %9) #13
  store i64 0, ptr %3, align 8, !tbaa !45
  br label %tar_flush_unconsumed.exit.i

tar_flush_unconsumed.exit.i:                      ; preds = %10, %7
  %12 = call ptr @__archive_read_ahead(ptr noundef %0, i64 noundef 1, ptr noundef nonnull %5) #13
  %13 = load i64, ptr %5, align 8, !tbaa !45
  %14 = icmp slt i64 %13, 1
  %15 = icmp eq ptr %12, null
  %or.cond.i = select i1 %14, i1 true, i1 %15
  br i1 %or.cond.i, label %readline.exit.thread, label %16

16:                                               ; preds = %tar_flush_unconsumed.exit.i
  %17 = call ptr @memchr(ptr noundef nonnull %12, i32 noundef 10, i64 noundef %13) #15
  %.not.i = icmp eq ptr %17, null
  br i1 %.not.i, label %.preheader.i, label %19

.preheader.i:                                     ; preds = %16
  store i64 %13, ptr %3, align 8, !tbaa !45
  %18 = icmp sgt i64 %13, %spec.select
  br i1 %18, label %._crit_edge.i, label %.lr.ph.i

19:                                               ; preds = %16
  %20 = getelementptr inbounds nuw i8, ptr %17, i64 1
  %21 = ptrtoint ptr %20 to i64
  %22 = ptrtoint ptr %12 to i64
  %23 = sub i64 %21, %22
  store i64 %23, ptr %5, align 8, !tbaa !45
  %24 = icmp sgt i64 %23, %spec.select
  br i1 %24, label %25, label %26

25:                                               ; preds = %19
  call void (ptr, i32, ptr, ...) @archive_set_error(ptr noundef %0, i32 noundef 84, ptr noundef nonnull @.str.128) #13
  br label %readline.exit.thread

26:                                               ; preds = %19
  store i64 %23, ptr %3, align 8, !tbaa !45
  br label %readline.exit

._crit_edge.i:                                    ; preds = %.preheader.i, %54
  call void (ptr, i32, ptr, ...) @archive_set_error(ptr noundef %0, i32 noundef 84, ptr noundef nonnull @.str.128) #13
  br label %readline.exit.thread

.lr.ph.i:                                         ; preds = %.preheader.i, %54
  %27 = phi i64 [ %56, %54 ], [ %13, %.preheader.i ]
  %.063.i = phi ptr [ %48, %54 ], [ null, %.preheader.i ]
  %.04262.i = phi ptr [ %43, %54 ], [ %12, %.preheader.i ]
  %.04361.i = phi i64 [ %39, %54 ], [ 0, %.preheader.i ]
  %28 = call ptr @archive_string_ensure(ptr noundef nonnull %6, i64 noundef %27) #13
  %29 = icmp eq ptr %28, null
  br i1 %29, label %30, label %31

30:                                               ; preds = %.lr.ph.i
  call void (ptr, i32, ptr, ...) @archive_set_error(ptr noundef %0, i32 noundef 12, ptr noundef nonnull @.str.129) #13
  br label %readline.exit.thread

31:                                               ; preds = %.lr.ph.i
  %32 = load ptr, ptr %6, align 8, !tbaa !110
  %33 = getelementptr inbounds i8, ptr %32, i64 %.04361.i
  %34 = load i64, ptr %5, align 8, !tbaa !45
  call void @llvm.memcpy.p0.p0.i64(ptr align 1 %33, ptr nonnull align 1 %.04262.i, i64 %34, i1 false)
  %35 = load i64, ptr %3, align 8, !tbaa !45
  %.not.i55.i = icmp eq i64 %35, 0
  br i1 %.not.i55.i, label %tar_flush_unconsumed.exit56.i, label %36

36:                                               ; preds = %31
  %37 = call i64 @__archive_read_consume(ptr noundef %0, i64 noundef %35) #13
  store i64 0, ptr %3, align 8, !tbaa !45
  br label %tar_flush_unconsumed.exit56.i

tar_flush_unconsumed.exit56.i:                    ; preds = %36, %31
  %38 = load i64, ptr %5, align 8, !tbaa !45
  %39 = add nsw i64 %38, %.04361.i
  %.not53.i = icmp eq ptr %.063.i, null
  br i1 %.not53.i, label %42, label %40

40:                                               ; preds = %tar_flush_unconsumed.exit56.i
  %41 = load ptr, ptr %6, align 8, !tbaa !110
  br label %readline.exit

42:                                               ; preds = %tar_flush_unconsumed.exit56.i
  %43 = call ptr @__archive_read_ahead(ptr noundef %0, i64 noundef 1, ptr noundef nonnull %5) #13
  %44 = load i64, ptr %5, align 8, !tbaa !45
  %45 = icmp slt i64 %44, 1
  %46 = icmp eq ptr %43, null
  %or.cond3.i = select i1 %45, i1 true, i1 %46
  br i1 %or.cond3.i, label %readline.exit.thread, label %47

47:                                               ; preds = %42
  %48 = call ptr @memchr(ptr noundef nonnull %43, i32 noundef 10, i64 noundef %44) #15
  %.not54.i = icmp eq ptr %48, null
  br i1 %.not54.i, label %54, label %49

49:                                               ; preds = %47
  %50 = getelementptr inbounds nuw i8, ptr %48, i64 1
  %51 = ptrtoint ptr %50 to i64
  %52 = ptrtoint ptr %43 to i64
  %53 = sub i64 %51, %52
  store i64 %53, ptr %5, align 8, !tbaa !45
  br label %54

54:                                               ; preds = %49, %47
  %55 = phi i64 [ %53, %49 ], [ %44, %47 ]
  store i64 %55, ptr %3, align 8, !tbaa !45
  %56 = add nsw i64 %55, %39
  %57 = icmp sgt i64 %56, %spec.select
  br i1 %57, label %._crit_edge.i, label %.lr.ph.i

readline.exit.thread:                             ; preds = %tar_flush_unconsumed.exit.i, %42, %25, %._crit_edge.i, %30
  call void @llvm.lifetime.end.p0(i64 8, ptr nonnull %5) #13
  br label %.loopexit

readline.exit:                                    ; preds = %26, %40
  %.2 = phi ptr [ %41, %40 ], [ %12, %26 ]
  %.044.i = phi i64 [ %39, %40 ], [ %23, %26 ]
  call void @llvm.lifetime.end.p0(i64 8, ptr nonnull %5) #13
  %58 = icmp slt i64 %.044.i, 1
  br i1 %58, label %.loopexit, label %59

59:                                               ; preds = %readline.exit
  %60 = load i64, ptr %2, align 8, !tbaa !45
  %61 = sub nsw i64 %60, %.044.i
  store i64 %61, ptr %2, align 8, !tbaa !45
  %62 = load i8, ptr %.2, align 1, !tbaa !4
  switch i8 %62, label %.lr.ph [
    i8 35, label %7
    i8 10, label %.loopexit
  ]

.preheaderthread-pre-split:                       ; preds = %77
  %63 = add nsw i64 %.0244369, -1
  %64 = getelementptr inbounds nuw i8, ptr %.1324270, i64 1
  %.pr = load i8, ptr %64, align 1, !tbaa !4
  %65 = icmp eq i8 %.pr, 10
  br i1 %65, label %.loopexit, label %.lr.ph

.lr.ph:                                           ; preds = %59, %.preheaderthread-pre-split
  %.1324270 = phi ptr [ %64, %.preheaderthread-pre-split ], [ %.2, %59 ]
  %.0244369 = phi i64 [ %63, %.preheaderthread-pre-split ], [ %.044.i, %59 ]
  %.0234468 = phi i64 [ %.1, %.preheaderthread-pre-split ], [ 0, %59 ]
  %66 = phi i8 [ %.pr, %.preheaderthread-pre-split ], [ %62, %59 ]
  %67 = add i8 %66, -58
  %or.cond = icmp ult i8 %67, -10
  br i1 %or.cond, label %.loopexit, label %68

68:                                               ; preds = %.lr.ph
  %narrow = add nsw i8 %66, -48
  %69 = zext nneg i8 %narrow to i64
  %70 = icmp sgt i64 %.0234468, 922337203685477580
  br i1 %70, label %77, label %71

71:                                               ; preds = %68
  %72 = icmp eq i64 %.0234468, 922337203685477580
  %73 = icmp samesign ugt i8 %narrow, 7
  %or.cond28 = select i1 %72, i1 %73, i1 false
  br i1 %or.cond28, label %77, label %74

74:                                               ; preds = %71
  %75 = mul nsw i64 %.0234468, 10
  %76 = add nsw i64 %75, %69
  br label %77

77:                                               ; preds = %68, %71, %74
  %.1 = phi i64 [ %76, %74 ], [ 9223372036854775807, %71 ], [ 9223372036854775807, %68 ]
  %78 = icmp sgt i64 %.0244369, 1
  br i1 %78, label %.preheaderthread-pre-split, label %.loopexit, !llvm.loop !111

.loopexit:                                        ; preds = %readline.exit, %59, %.preheaderthread-pre-split, %.lr.ph, %77, %readline.exit.thread
  %.0 = phi i64 [ -30, %readline.exit.thread ], [ -20, %77 ], [ -20, %.lr.ph ], [ %.1, %.preheaderthread-pre-split ], [ -30, %readline.exit ], [ 0, %59 ]
  ret i64 %.0
}